; Function Attrs: nounwind uwtable
define internal noundef i32 @zend_implement_backed_enum(ptr nocapture noundef readonly %0, ptr nocapture noundef readonly %1) #0 {
  %3 = getelementptr inbounds i8, ptr %1, i64 28
  %4 = load i32, ptr %3, align 4
  %5 = and i32 %4, 268435456
  %.not = icmp eq i32 %5, 0
  br i1 %.not, label %6, label %13

6:                                                ; preds = %2
  %7 = getelementptr inbounds i8, ptr %1, i64 8
  %8 = load ptr, ptr %7, align 8
  %9 = getelementptr inbounds i8, ptr %8, i64 24
  %10 = getelementptr inbounds i8, ptr %0, i64 8
  %11 = load ptr, ptr %10, align 8
  %12 = getelementptr inbounds i8, ptr %11, i64 24
  tail call void (i32, ptr, ...) @zend_error_noreturn(i32 noundef 1, ptr noundef nonnull @.str.26, ptr noundef nonnull %9, ptr noundef nonnull %12) #13
  unreachable

13:                                               ; preds = %2
  %14 = getelementptr inbounds i8, ptr %1, i64 472
  %15 = load i32, ptr %14, align 8
  %16 = icmp eq i32 %15, 0
  br i1 %16, label %17, label %24

17:                                               ; preds = %13
  %18 = getelementptr inbounds i8, ptr %1, i64 8
  %19 = load ptr, ptr %18, align 8
  %20 = getelementptr inbounds i8, ptr %19, i64 24
  %21 = getelementptr inbounds i8, ptr %0, i64 8
  %22 = load ptr, ptr %21, align 8
  %23 = getelementptr inbounds i8, ptr %22, i64 24
  tail call void (i32, ptr, ...) @zend_error_noreturn(i32 noundef 1, ptr noundef nonnull @.str.30, ptr noundef nonnull %20, ptr noundef nonnull %23) #13
  unreachable

24:                                               ; preds = %13
  ret i32 0
}